target datalayout = "e-m:e-p270:32:32-p271:32:32-p272:64:64-i64:64-i128:128-f80:128-n8:16:32:64-S128"
target triple = "x86_64-pc-linux-gnu"

%struct.mbedtls_cipher_info_t = type { i32, i32, i32, ptr, i32, i32, i32, ptr }
%struct.mbedtls_cipher_context_t = type { ptr, i32, i32, [16 x i8], i64, [16 x i8], i64, ptr }

; Function Attrs: mustprogress uwtable
define hidden i32 @mbedtls_cipher_check_tag(ptr noundef %0, ptr noundef %1, i64 noundef %2) #4 {
  %4 = alloca i32, align 4
  %5 = alloca ptr, align 8
  %6 = alloca ptr, align 8
  %7 = alloca i64, align 8
  %8 = alloca [16 x i8], align 16
  %9 = alloca i32, align 4
  %10 = alloca i32, align 4
  %11 = alloca i64, align 8
  store ptr %0, ptr %5, align 8, !tbaa !36
  store ptr %1, ptr %6, align 8, !tbaa !20
  store i64 %2, ptr %7, align 8, !tbaa !52
  call void @llvm.lifetime.start.p0(i64 16, ptr %8) #8
  call void @llvm.lifetime.start.p0(i64 4, ptr %9) #8
  store i32 -110, ptr %9, align 4, !tbaa !3
  br label %12

12:                                               ; preds = %3
  br label %13

13:                                               ; preds = %12
  br label %14

14:                                               ; preds = %13
  br label %15

15:                                               ; preds = %14
  br label %16

16:                                               ; preds = %15
  br label %17

17:                                               ; preds = %16
  %18 = load ptr, ptr %5, align 8, !tbaa !36
  %19 = getelementptr inbounds nuw %struct.mbedtls_cipher_context_t, ptr %18, i32 0, i32 0
  %20 = load ptr, ptr %19, align 8, !tbaa !42
  %21 = icmp eq ptr %20, null
  br i1 %21, label %22, label %23

22:                                               ; preds = %17
  store i32 -24832, ptr %4, align 4
  store i32 1, ptr %10, align 4
  br label %66

23:                                               ; preds = %17
  %24 = load ptr, ptr %5, align 8, !tbaa !36
  %25 = getelementptr inbounds nuw %struct.mbedtls_cipher_context_t, ptr %24, i32 0, i32 2
  %26 = load i32, ptr %25, align 4, !tbaa !49
  %27 = icmp ne i32 0, %26
  br i1 %27, label %28, label %29

28:                                               ; preds = %23
  store i32 -24832, ptr %4, align 4
  store i32 1, ptr %10, align 4
  br label %66

29:                                               ; preds = %23
  store i32 0, ptr %9, align 4, !tbaa !3
  %30 = load ptr, ptr %5, align 8, !tbaa !36
  %31 = getelementptr inbounds nuw %struct.mbedtls_cipher_context_t, ptr %30, i32 0, i32 0
  %32 = load ptr, ptr %31, align 8, !tbaa !42
  %33 = getelementptr inbounds nuw %struct.mbedtls_cipher_info_t, ptr %32, i32 0, i32 1
  %34 = load i32, ptr %33, align 4, !tbaa !34
  %35 = icmp eq i32 6, %34
  br i1 %35, label %36, label %61

36:                                               ; preds = %29
  call void @llvm.lifetime.start.p0(i64 8, ptr %11) #8
  %37 = load i64, ptr %7, align 8, !tbaa !52
  %38 = icmp ugt i64 %37, 16
  br i1 %38, label %39, label %40

39:                                               ; preds = %36
  store i32 -24832, ptr %4, align 4
  store i32 1, ptr %10, align 4
  br label %58

40:                                               ; preds = %36
  %41 = load ptr, ptr %5, align 8, !tbaa !36
  %42 = getelementptr inbounds nuw %struct.mbedtls_cipher_context_t, ptr %41, i32 0, i32 7
  %43 = load ptr, ptr %42, align 8, !tbaa !38
  %44 = getelementptr inbounds [16 x i8], ptr %8, i64 0, i64 0
  %45 = load i64, ptr %7, align 8, !tbaa !52
  %46 = call i32 @mbedtls_gcm_finish(ptr noundef %43, ptr noundef null, i64 noundef 0, ptr noundef %11, ptr noundef %44, i64 noundef %45)
  store i32 %46, ptr %9, align 4, !tbaa !3
  %47 = icmp ne i32 0, %46
  br i1 %47, label %48, label %50

48:                                               ; preds = %40
  %49 = load i32, ptr %9, align 4, !tbaa !3
  store i32 %49, ptr %4, align 4
  store i32 1, ptr %10, align 4
  br label %58

50:                                               ; preds = %40
  %51 = load ptr, ptr %6, align 8, !tbaa !20
  %52 = getelementptr inbounds [16 x i8], ptr %8, i64 0, i64 0
  %53 = load i64, ptr %7, align 8, !tbaa !52
  %54 = call noundef i32 @_Z17mbedtls_ct_memcmpPKvS0_m(ptr noundef %51, ptr noundef %52, i64 noundef %53)
  %55 = icmp ne i32 %54, 0
  br i1 %55, label %56, label %57

56:                                               ; preds = %50
  store i32 -25344, ptr %9, align 4, !tbaa !3
  store i32 6, ptr %10, align 4
  br label %58

57:                                               ; preds = %50
  store i32 0, ptr %10, align 4
  br label %58

58:                                               ; preds = %56, %57, %48, %39
  call void @llvm.lifetime.end.p0(i64 8, ptr %11) #8
  %59 = load i32, ptr %10, align 4
  switch i32 %59, label %66 [
    i32 0, label %60
    i32 6, label %62
  ]

60:                                               ; preds = %58
  br label %61

61:                                               ; preds = %60, %29
  br label %62

62:                                               ; preds = %61, %58
  %63 = getelementptr inbounds [16 x i8], ptr %8, i64 0, i64 0
  %64 = load i64, ptr %7, align 8, !tbaa !52
  call void @mbedtls_platform_zeroize(ptr noundef %63, i64 noundef %64)
  %65 = load i32, ptr %9, align 4, !tbaa !3
  store i32 %65, ptr %4, align 4
  store i32 1, ptr %10, align 4
  br label %66

66:                                               ; preds = %62, %58, %28, %22
  call void @llvm.lifetime.end.p0(i64 4, ptr %9) #8
  call void @llvm.lifetime.end.p0(i64 16, ptr %8) #8
  %67 = load i32, ptr %4, align 4
  ret i32 %67
}