; Function Attrs: mustprogress uwtable
define hidden i32 @mbedtls_cipher_check_tag(ptr noundef readonly captures(none) %0, ptr noundef %1, i64 noundef %2) local_unnamed_addr #8 {
  %4 = alloca [16 x i8], align 16
  %5 = alloca i64, align 8
  call void @llvm.lifetime.start.p0(i64 16, ptr nonnull %4) #14
  %6 = load ptr, ptr %0, align 8, !tbaa !33
  %7 = icmp eq ptr %6, null
  br i1 %7, label %23, label %8

8:                                                ; preds = %3
  %9 = getelementptr inbounds nuw i8, ptr %0, i64 12
  %10 = load i32, ptr %9, align 4, !tbaa !38
  %.not = icmp eq i32 %10, 0
  br i1 %.not, label %11, label %23

11:                                               ; preds = %8
  %12 = getelementptr inbounds nuw i8, ptr %6, i64 4
  %13 = load i32, ptr %12, align 4, !tbaa !27
  %14 = icmp eq i32 %13, 6
  br i1 %14, label %15, label %22

15:                                               ; preds = %11
  call void @llvm.lifetime.start.p0(i64 8, ptr nonnull %5) #14
  %16 = icmp ugt i64 %2, 16
  br i1 %16, label %.thread, label %17

17:                                               ; preds = %15
  %18 = getelementptr inbounds nuw i8, ptr %0, i64 64
  %19 = load ptr, ptr %18, align 8, !tbaa !29
  %20 = call i32 @mbedtls_gcm_finish(ptr noundef %19, ptr noundef null, i64 noundef 0, ptr noundef nonnull %5, ptr noundef nonnull %4, i64 noundef %2)
  %.not19 = icmp eq i32 %20, 0
  br i1 %.not19, label %select.unfold, label %.thread

select.unfold:                                    ; preds = %17
  %21 = call noundef i32 @_Z17mbedtls_ct_memcmpPKvS0_m(ptr noundef %1, ptr noundef nonnull %4, i64 noundef %2)
  %.not20 = icmp eq i32 %21, 0
  %. = select i1 %.not20, i32 0, i32 -25344
  call void @llvm.lifetime.end.p0(i64 8, ptr nonnull %5) #14
  br label %22

.thread:                                          ; preds = %15, %17
  %.114.ph = phi i32 [ %20, %17 ], [ -24832, %15 ]
  call void @llvm.lifetime.end.p0(i64 8, ptr nonnull %5) #14
  br label %23

22:                                               ; preds = %select.unfold, %11
  %.1 = phi i32 [ %., %select.unfold ], [ 0, %11 ]
  call void @mbedtls_platform_zeroize(ptr noundef nonnull %4, i64 noundef %2)
  br label %23

23:                                               ; preds = %.thread, %8, %3, %22
  %.013 = phi i32 [ %.1, %22 ], [ -24832, %3 ], [ -24832, %8 ], [ %.114.ph, %.thread ]
  call void @llvm.lifetime.end.p0(i64 16, ptr nonnull %4) #14
  ret i32 %.013
}